; Function Attrs: mustprogress uwtable
define dso_local noundef zeroext i1 @_ZN16VariableSelector23has_dereferenceable_varERKSt6vectorIP8VariableSaIS2_EEPK4TypeRK9CGContext(ptr nocapture noundef nonnull readonly align 8 dereferenceable(24) %0, ptr noundef %1, ptr noundef nonnull align 8 dereferenceable(216) %2) local_unnamed_addr #4 align 2 {
  %4 = tail call noundef ptr @_Z12get_fact_mgrPK9CGContext(ptr noundef nonnull %2)
  %5 = getelementptr inbounds i8, ptr %0, i64 8
  %6 = load ptr, ptr %5, align 8
  %7 = load ptr, ptr %0, align 8
  %.not = icmp eq ptr %6, %7
  br i1 %.not, label %._crit_edge, label %.lr.ph

.lr.ph:                                           ; preds = %3
  %8 = getelementptr inbounds i8, ptr %4, i64 360
  br label %9

9:                                                ; preds = %.lr.ph, %18
  %10 = phi ptr [ %7, %.lr.ph ], [ %21, %18 ]
  %.01011 = phi i64 [ 0, %.lr.ph ], [ %19, %18 ]
  %11 = getelementptr inbounds ptr, ptr %10, i64 %.01011
  %12 = load ptr, ptr %11, align 8
  %13 = getelementptr inbounds i8, ptr %12, i64 64
  %14 = load ptr, ptr %13, align 8
  %15 = tail call noundef zeroext i1 @_ZNK4Type20is_dereferenced_fromEPKS_(ptr noundef nonnull align 8 dereferenceable(136) %1, ptr noundef %14)
  br i1 %15, label %16, label %18

16:                                               ; preds = %9
  %17 = tail call noundef zeroext i1 @_ZN11FactPointTo12is_valid_ptrEPK8VariableRKSt6vectorIPK4FactSaIS6_EE(ptr noundef nonnull %12, ptr noundef nonnull align 8 dereferenceable(24) %8)
  br i1 %17, label %._crit_edge, label %18

18:                                               ; preds = %9, %16
  %19 = add nuw i64 %.01011, 1
  %20 = load ptr, ptr %5, align 8
  %21 = load ptr, ptr %0, align 8
  %22 = ptrtoint ptr %20 to i64
  %23 = ptrtoint ptr %21 to i64
  %24 = sub i64 %22, %23
  %25 = ashr exact i64 %24, 3
  %26 = icmp ult i64 %19, %25
  br i1 %26, label %9, label %._crit_edge, !llvm.loop !9

._crit_edge:                                      ; preds = %16, %18, %3
  %.lcssa = phi i1 [ false, %3 ], [ false, %18 ], [ true, %16 ]
  ret i1 %.lcssa
}